BL51 BANKED LINKER/LOCATER V6.22.4.0                                                    12/28/2023  14:20:22  PAGE 1


BL51 BANKED LINKER/LOCATER V6.22.4.0, INVOKED BY:
C:\KEIL_V5\C51\BIN\BL51.EXE .\Objects\STARTUP.obj, .\Objects\main.obj, .\Objects\os_task.obj, .\Objects\test.obj TO .\Ob
>> jects\ºôÎüµÆpwm PRINT (.\Listings\ºôÎüµÆpwm.m51) RAMSIZE (256)


MEMORY MODEL: SMALL


INPUT MODULES INCLUDED:
  .\Objects\STARTUP.obj (?C_STARTUP)
  .\Objects\main.obj (MAIN)
  .\Objects\os_task.obj (OS_TASK)
  .\Objects\test.obj (TEST)
  C:\KEIL_V5\C51\LIB\C51S.LIB (?C_INIT)
  C:\KEIL_V5\C51\LIB\C51S.LIB (?C?CSTPTR)
  C:\KEIL_V5\C51\LIB\C51S.LIB (?C?CSTOPTR)
  C:\KEIL_V5\C51\LIB\C51S.LIB (?C?ULCMP)
  C:\KEIL_V5\C51\LIB\C51S.LIB (?C?LLDIDATA)
  C:\KEIL_V5\C51\LIB\C51S.LIB (?C?LSTIDATA)
  C:\KEIL_V5\C51\LIB\C51S.LIB (?C?LSTKIDATA)


LINK MAP OF MODULE:  .\Objects\ºôÎüµÆpwm (?C_STARTUP)


            TYPE    BASE      LENGTH    RELOCATION   SEGMENT NAME
            -----------------------------------------------------

            * * * * * * *   D A T A   M E M O R Y   * * * * * * *
            REG     0000H     0008H     ABSOLUTE     "REG BANK 0"
            DATA    0008H     0009H     UNIT         _DATA_GROUP_
            DATA    0011H     0002H     UNIT         ?DT?MAIN
            DATA    0013H     0002H     UNIT         ?DT?OS_TASK
            IDATA   0015H     0064H     UNIT         ?ID?MAIN
            IDATA   0079H     005FH     UNIT         ?ID?OS_TASK
            IDATA   00D8H     0001H     UNIT         ?STACK

            * * * * * * *   C O D E   M E M O R Y   * * * * * * *
            CODE    0000H     0003H     ABSOLUTE     
            CODE    0003H     0005H     UNIT         ?PR?OS_IDLE_TASK?OS_TASK
                    0008H     0003H                  *** GAP ***
            CODE    000BH     0003H     ABSOLUTE     
            CODE    000EH     00B4H     UNIT         ?PR?_OS_TASK_CREATE?OS_TASK
            CODE    00C2H     008FH     UNIT         ?PR?TIME_HANDLEHOOK?OS_TASK
            CODE    0151H     008CH     UNIT         ?C_C51STARTUP
            CODE    01DDH     0076H     UNIT         ?C?LIB_CODE
            CODE    0253H     0053H     UNIT         ?PR?TIME0_HANDLE?MAIN
            CODE    02A6H     0040H     UNIT         ?PR?MAIN?MAIN
            CODE    02E6H     003DH     UNIT         ?PR?OS_SWITCH?OS_TASK
            CODE    0323H     0035H     UNIT         ?PR?TASK2?MAIN
            CODE    0358H     002CH     UNIT         ?PR?TASK1?MAIN
            CODE    0384H     002BH     UNIT         ?PR?OS_START?OS_TASK
            CODE    03AFH     0023H     UNIT         ?PR?PUSH_ALL_STACK?TEST
            CODE    03D2H     0023H     UNIT         ?PR?POP_ALL_STACK?TEST
            CODE    03F5H     001AH     UNIT         ?PR?_OS_DELAY?OS_TASK
            CODE    040FH     0013H     UNIT         ?PR?TIMER0_INIT?MAIN
            CODE    0422H     000FH     UNIT         ?PR?DELAY500MS?OS_TASK
            CODE    0431H     000BH     UNIT         ?C_INITSEG
BL51 BANKED LINKER/LOCATER V6.22.4.0                                                  12/28/2023  14:20:22  PAGE 2





OVERLAY MAP OF MODULE:   .\Objects\ºôÎüµÆpwm (?C_STARTUP)


SEGMENT                               DATA_GROUP 
  +--> CALLED SEGMENT               START    LENGTH
---------------------------------------------------
?C_C51STARTUP                       -----    -----
  +--> ?PR?MAIN?MAIN
  +--> ?C_INITSEG

?PR?MAIN?MAIN                       -----    -----
  +--> ?PR?TIMER0_INIT?MAIN
  +--> ?PR?TASK1?MAIN
  +--> ?PR?_OS_TASK_CREATE?OS_TASK
  +--> ?PR?TASK2?MAIN
  +--> ?PR?OS_START?OS_TASK

?PR?TASK1?MAIN                      -----    -----
  +--> ?PR?_OS_DELAY?OS_TASK
  +--> ?PR?OS_SWITCH?OS_TASK

?PR?_OS_DELAY?OS_TASK               -----    -----
  +--> ?PR?OS_SWITCH?OS_TASK

?PR?_OS_TASK_CREATE?OS_TASK         0008H    0008H

?PR?TASK2?MAIN                      -----    -----
  +--> ?PR?_OS_DELAY?OS_TASK
  +--> ?PR?OS_SWITCH?OS_TASK

?PR?OS_START?OS_TASK                -----    -----
  +--> ?PR?OS_IDLE_TASK?OS_TASK
  +--> ?PR?_OS_TASK_CREATE?OS_TASK

?PR?OS_IDLE_TASK?OS_TASK            -----    -----
  +--> ?PR?OS_SWITCH?OS_TASK

*** NEW ROOT ***************************************************

?PR?TIME0_HANDLE?MAIN               -----    -----
  +--> ?PR?TIME_HANDLEHOOK?OS_TASK

?PR?TIME_HANDLEHOOK?OS_TASK         0010H    0001H



SYMBOL TABLE OF MODULE:  .\Objects\ºôÎüµÆpwm (?C_STARTUP)

  VALUE           TYPE          NAME
  ----------------------------------

  -------         MODULE        ?C_STARTUP
  C:0151H         SEGMENT       ?C_C51STARTUP
  I:00D8H         SEGMENT       ?STACK
BL51 BANKED LINKER/LOCATER V6.22.4.0                                                  12/28/2023  14:20:22  PAGE 3


  C:0000H         PUBLIC        ?C_STARTUP
  D:00E0H         SYMBOL        ACC
  D:00F0H         SYMBOL        B
  D:0083H         SYMBOL        DPH
  D:0082H         SYMBOL        DPL
  N:0000H         SYMBOL        IBPSTACK
  N:0100H         SYMBOL        IBPSTACKTOP
  N:0080H         SYMBOL        IDATALEN
  C:0154H         SYMBOL        IDATALOOP
  N:0000H         SYMBOL        PBPSTACK
  N:0100H         SYMBOL        PBPSTACKTOP
  N:0000H         SYMBOL        PDATALEN
  N:0000H         SYMBOL        PDATASTART
  N:0000H         SYMBOL        PPAGE
  N:0000H         SYMBOL        PPAGEENABLE
  D:00A0H         SYMBOL        PPAGE_SFR
  D:0081H         SYMBOL        SP
  C:0151H         SYMBOL        STARTUP1
  N:0000H         SYMBOL        XBPSTACK
  N:0000H         SYMBOL        XBPSTACKTOP
  N:0000H         SYMBOL        XDATALEN
  N:0000H         SYMBOL        XDATASTART
  C:0000H         LINE#         126
  C:0151H         LINE#         133
  C:0153H         LINE#         134
  C:0154H         LINE#         135
  C:0155H         LINE#         136
  C:0157H         LINE#         185
  C:015AH         LINE#         196
  -------         ENDMOD        ?C_STARTUP

  -------         MODULE        MAIN
  C:0000H         SYMBOL        _ICE_DUMMY_
  D:0093H         PUBLIC        P0M1
  D:0080H         PUBLIC        P0
  D:0090H         PUBLIC        P1
  D:00A0H         PUBLIC        P2
  D:00B0H         PUBLIC        P3
  D:00C0H         PUBLIC        P4
  D:00C8H         PUBLIC        P5
  D:00E8H         PUBLIC        P6
  B:00A8H.7       PUBLIC        EA
  D:00F8H         PUBLIC        P7
  B:0080H.5       PUBLIC        LED_R
  D:00BAH         PUBLIC        P_SW2
  D:00A8H         PUBLIC        IE
  B:0080H.6       PUBLIC        LED_Y
  D:00B8H         PUBLIC        IP
  D:00D8H         PUBLIC        CCON
  C:02A6H         PUBLIC        main
  C:040FH         PUBLIC        Timer0_Init
  C:0253H         PUBLIC        time0_handle
  D:0098H         PUBLIC        SCON
  D:0089H         PUBLIC        TMOD
  D:0088H         PUBLIC        TCON
  D:008EH         PUBLIC        AUXR
  B:00A8H.1       PUBLIC        ET0
BL51 BANKED LINKER/LOCATER V6.22.4.0                                                  12/28/2023  14:20:22  PAGE 4


  B:0088H.5       PUBLIC        TF0
  D:008CH         PUBLIC        TH0
  D:0011H         PUBLIC        cut
  D:008AH         PUBLIC        TL0
  B:0088H.4       PUBLIC        TR0
  I:0015H         PUBLIC        task_stack1
  I:0047H         PUBLIC        task_stack2
  C:0358H         PUBLIC        task1
  C:0323H         PUBLIC        task2
  D:00D0H         PUBLIC        PSW
  B:0080H.7       PUBLIC        LED_G
  D:0094H         PUBLIC        P0M0
  -------         PROC          TASK1
  C:0358H         LINE#         28
  C:0358H         LINE#         29
  C:0358H         LINE#         30
  C:0358H         LINE#         31
  C:0358H         LINE#         32
  C:035AH         LINE#         33
  C:0365H         LINE#         35
  C:0367H         LINE#         36
  C:0372H         LINE#         38
  C:0374H         LINE#         39
  C:037FH         LINE#         40
  C:0382H         LINE#         42
  -------         ENDPROC       TASK1
  -------         PROC          TASK2
  C:0323H         LINE#         45
  C:0323H         LINE#         46
  C:0323H         LINE#         48
  C:0323H         LINE#         49
  C:0323H         LINE#         50
  C:0325H         LINE#         51
  C:0330H         LINE#         52
  C:033BH         LINE#         54
  C:033DH         LINE#         55
  C:0348H         LINE#         56
  C:0353H         LINE#         57
  C:0356H         LINE#         59
  -------         ENDPROC       TASK2
  -------         PROC          TIME0_HANDLE
  C:0253H         LINE#         66
  C:0270H         LINE#         68
  C:0278H         LINE#         70
  C:0280H         LINE#         71
  C:0280H         LINE#         72
  C:0286H         LINE#         73
  C:0288H         LINE#         74
  C:0288H         LINE#         75
  C:028BH         LINE#         76
  -------         ENDPROC       TIME0_HANDLE
  -------         PROC          TIMER0_INIT
  C:040FH         LINE#         78
  C:040FH         LINE#         79
  C:040FH         LINE#         80
  C:0412H         LINE#         81
  C:0415H         LINE#         82
BL51 BANKED LINKER/LOCATER V6.22.4.0                                                  12/28/2023  14:20:22  PAGE 5


  C:0418H         LINE#         83
  C:041BH         LINE#         84
  C:041DH         LINE#         85
  C:041FH         LINE#         86
  C:0421H         LINE#         87
  -------         ENDPROC       TIMER0_INIT
  -------         PROC          MAIN
  C:02A6H         LINE#         90
  C:02A6H         LINE#         91
  C:02A6H         LINE#         92
  C:02A9H         LINE#         93
  C:02ABH         LINE#         94
  C:02AEH         LINE#         95
  C:02B0H         LINE#         96
  C:02B3H         LINE#         98
  C:02C9H         LINE#         99
  C:02E1H         LINE#         100
  C:02E4H         LINE#         103
  C:02E4H         LINE#         104
  C:02E4H         LINE#         106
  -------         ENDPROC       MAIN
  -------         ENDMOD        MAIN

  -------         MODULE        OS_TASK
  C:0000H         SYMBOL        _ICE_DUMMY_
  D:0080H         PUBLIC        P0
  D:0090H         PUBLIC        P1
  D:00A0H         PUBLIC        P2
  D:00B0H         PUBLIC        P3
  D:00C0H         PUBLIC        P4
  D:00C8H         PUBLIC        P5
  D:00E8H         PUBLIC        P6
  B:00A8H.7       PUBLIC        EA
  D:00F8H         PUBLIC        P7
  D:00A8H         PUBLIC        IE
  C:00C2H         PUBLIC        time_handleHook
  D:00B8H         PUBLIC        IP
  D:0081H         PUBLIC        SP
  D:00D8H         PUBLIC        CCON
  I:0079H         PUBLIC        task_idle_stack
  D:0098H         PUBLIC        SCON
  D:0088H         PUBLIC        TCON
  C:000EH         PUBLIC        _os_task_create
  C:03F5H         PUBLIC        _os_delay
  I:00ABH         PUBLIC        tcb_list
  C:02E6H         PUBLIC        os_switch
  D:0013H         PUBLIC        max_task
  D:0014H         PUBLIC        task_id
  C:0422H         PUBLIC        Delay500ms
  C:0384H         PUBLIC        os_start
  C:0003H         PUBLIC        os_idle_task
  D:00D0H         PUBLIC        PSW
  -------         PROC          OS_SWITCH
  -------         DO            
  D:0007H         SYMBOL        ost_i
  -------         ENDDO         
  C:02E6H         LINE#         37
BL51 BANKED LINKER/LOCATER V6.22.4.0                                                  12/28/2023  14:20:22  PAGE 6


  C:02E6H         LINE#         38
  C:02E6H         LINE#         39
  C:02E8H         LINE#         41
  C:02EAH         LINE#         50
  C:02F5H         LINE#         52
  C:02FBH         LINE#         53
  C:02FBH         LINE#         54
  C:0307H         LINE#         55
  C:0307H         LINE#         56
  C:0309H         LINE#         57
  C:0309H         LINE#         59
  C:0309H         LINE#         60
  C:030CH         LINE#         61
  C:0311H         LINE#         62
  C:0311H         LINE#         63
  C:0314H         LINE#         64
  C:0314H         LINE#         65
  C:0320H         LINE#         75
  C:0322H         LINE#         76
  -------         ENDPROC       OS_SWITCH
  -------         PROC          _OS_TASK_CREATE
  D:0008H         SYMBOL        task
  D:000BH         SYMBOL        tstack
  D:000EH         SYMBOL        tid
  C:000EH         LINE#         78
  C:0014H         LINE#         79
  C:0014H         LINE#         80
  C:001EH         LINE#         82
  C:002CH         LINE#         83
  C:0034H         LINE#         84
  C:0042H         LINE#         85
  C:0050H         LINE#         87
  C:0057H         LINE#         88
  C:005FH         LINE#         89
  C:0067H         LINE#         90
  C:006FH         LINE#         91
  C:0077H         LINE#         92
  C:007FH         LINE#         93
  C:0087H         LINE#         94
  C:008FH         LINE#         99
  C:00A1H         LINE#         100
  C:00ABH         LINE#         101
  C:00BFH         LINE#         108
  C:00C1H         LINE#         109
  -------         ENDPROC       _OS_TASK_CREATE
  -------         PROC          OS_START
  C:0384H         LINE#         112
  C:0384H         LINE#         113
  C:0384H         LINE#         114
  C:0386H         LINE#         116
  C:039DH         LINE#         119
  C:03A0H         LINE#         120
  C:03ACH         LINE#         123
  C:03AEH         LINE#         125
  -------         ENDPROC       OS_START
  -------         PROC          DELAY500MS
  -------         DO            
BL51 BANKED LINKER/LOCATER V6.22.4.0                                                  12/28/2023  14:20:22  PAGE 7


  D:0007H         SYMBOL        i
  D:0006H         SYMBOL        j
  D:0005H         SYMBOL        k
  -------         ENDDO         
  C:0422H         LINE#         126
  C:0422H         LINE#         127
  C:0422H         LINE#         130
  C:0423H         LINE#         131
  C:0424H         LINE#         132
  C:0426H         LINE#         133
  C:0428H         LINE#         134
  C:042AH         LINE#         136
  C:042AH         LINE#         138
  C:042AH         LINE#         139
  C:042CH         LINE#         140
  C:042EH         LINE#         141
  C:0430H         LINE#         142
  -------         ENDPROC       DELAY500MS
  -------         PROC          _OS_DELAY
  D:0004H         SYMBOL        tasks
  C:03F5H         LINE#         145
  C:03F5H         LINE#         146
  C:03F5H         LINE#         147
  C:03F5H         LINE#         149
  C:0401H         LINE#         151
  C:040CH         LINE#         153
  -------         ENDPROC       _OS_DELAY
  -------         PROC          OS_IDLE_TASK
  C:0003H         LINE#         157
  C:0003H         LINE#         158
  C:0003H         LINE#         159
  C:0003H         LINE#         160
  C:0003H         LINE#         161
  C:0006H         LINE#         162
  -------         ENDPROC       OS_IDLE_TASK
  -------         PROC          TIME_HANDLEHOOK
  -------         DO            
  D:0010H         SYMBOL        ti
  -------         ENDDO         
  C:00C2H         LINE#         164
  C:00C2H         LINE#         165
  C:00C2H         LINE#         166
  C:00C5H         LINE#         169
  C:00D1H         LINE#         170
  C:00D1H         LINE#         171
  C:00DFH         LINE#         172
  C:00DFH         LINE#         173
  C:00DFH         LINE#         174
  C:00DFH         LINE#         176
  C:0106H         LINE#         177
  C:0106H         LINE#         178
  C:0116H         LINE#         180
  C:0121H         LINE#         181
  C:0123H         LINE#         182
  C:0123H         LINE#         183
  C:014BH         LINE#         184
  C:0150H         LINE#         186
BL51 BANKED LINKER/LOCATER V6.22.4.0                                                  12/28/2023  14:20:22  PAGE 8


  -------         ENDPROC       TIME_HANDLEHOOK
  -------         ENDMOD        OS_TASK

  -------         MODULE        TEST
  C:03AFH         SEGMENT       ?PR?PUSH_ALL_STACK?TEST
  C:03D2H         SEGMENT       ?PR?POP_ALL_STACK?TEST
  C:03D2H         PUBLIC        POP_ALL_STACK
  C:03AFH         PUBLIC        PUSH_ALL_STACK
  D:00E0H         SYMBOL        ACC
  D:00F0H         SYMBOL        B
  D:0083H         SYMBOL        DPH
  D:0082H         SYMBOL        DPL
  D:00D0H         SYMBOL        PSW
  N:0000H         SYMBOL        TEST
  C:03AFH         LINE#         22
  C:03B1H         LINE#         24
  C:03B3H         LINE#         26
  C:03B5H         LINE#         28
  C:03B7H         LINE#         30
  C:03B9H         LINE#         32
  C:03BAH         LINE#         34
  C:03BCH         LINE#         36
  C:03BDH         LINE#         38
  C:03BFH         LINE#         40
  C:03C0H         LINE#         42
  C:03C2H         LINE#         44
  C:03C3H         LINE#         46
  C:03C5H         LINE#         48
  C:03C6H         LINE#         50
  C:03C8H         LINE#         52
  C:03C9H         LINE#         54
  C:03CBH         LINE#         56
  C:03CCH         LINE#         58
  C:03CEH         LINE#         60
  C:03CFH         LINE#         62
  C:03D1H         LINE#         66
  C:03D2H         LINE#         79
  C:03D4H         LINE#         81
  C:03D5H         LINE#         83
  C:03D7H         LINE#         85
  C:03D8H         LINE#         87
  C:03DAH         LINE#         89
  C:03DBH         LINE#         91
  C:03DDH         LINE#         93
  C:03DEH         LINE#         95
  C:03E0H         LINE#         97
  C:03E1H         LINE#         99
  C:03E3H         LINE#         101
  C:03E4H         LINE#         103
  C:03E6H         LINE#         105
  C:03E7H         LINE#         107
  C:03E9H         LINE#         109
  C:03EAH         LINE#         111
  C:03ECH         LINE#         113
  C:03EEH         LINE#         115
  C:03F0H         LINE#         117
  C:03F2H         LINE#         119
BL51 BANKED LINKER/LOCATER V6.22.4.0                                                  12/28/2023  14:20:22  PAGE 9


  C:03F4H         LINE#         121
  -------         ENDMOD        TEST

  -------         MODULE        ?C?CSTPTR
  C:01DDH         PUBLIC        ?C?CSTPTR
  -------         ENDMOD        ?C?CSTPTR

  -------         MODULE        ?C?CSTOPTR
  C:01EFH         PUBLIC        ?C?CSTOPTR
  -------         ENDMOD        ?C?CSTOPTR

  -------         MODULE        ?C?ULCMP
  C:0211H         PUBLIC        ?C?ULCMP
  -------         ENDMOD        ?C?ULCMP

  -------         MODULE        ?C?LLDIDATA
  C:0222H         PUBLIC        ?C?LLDIDATA
  -------         ENDMOD        ?C?LLDIDATA

  -------         MODULE        ?C?LSTIDATA
  C:022EH         PUBLIC        ?C?LSTIDATA
  -------         ENDMOD        ?C?LSTIDATA

  -------         MODULE        ?C?LSTKIDATA
  C:023AH         PUBLIC        ?C?LSTKIDATA
  -------         ENDMOD        ?C?LSTKIDATA

*** WARNING L16: UNCALLED SEGMENT, IGNORED FOR OVERLAY PROCESS
    SEGMENT: ?PR?DELAY500MS?OS_TASK

*** WARNING L16: UNCALLED SEGMENT, IGNORED FOR OVERLAY PROCESS
    SEGMENT: ?PR?PUSH_ALL_STACK?TEST

*** WARNING L16: UNCALLED SEGMENT, IGNORED FOR OVERLAY PROCESS
    SEGMENT: ?PR?POP_ALL_STACK?TEST

Program Size: data=217.0 xdata=0 code=1081
LINK/LOCATE RUN COMPLETE.  3 WARNING(S),  0 ERROR(S)
