BL51 BANKED LINKER/LOCATER V6.22.2.0                                                    12/28/2023  22:38:22  PAGE 1


BL51 BANKED LINKER/LOCATER V6.22.2.0, INVOKED BY:
D:\KEIL_V5_C51\C51\BIN\BL51.EXE .\Objects\STARTUP.obj, .\Objects\main.obj, .\Objects\os_task.obj, .\Objects\os_mcu.obj T
>> O .\Objects\ºôÎüµÆpwm PRINT (.\Listings\ºôÎüµÆpwm.m51) RAMSIZE (256)


MEMORY MODEL: SMALL


INPUT MODULES INCLUDED:
  .\Objects\STARTUP.obj (?C_STARTUP)
  .\Objects\main.obj (MAIN)
  .\Objects\os_task.obj (OS_TASK)
  .\Objects\os_mcu.obj (OS_CPU_A_ASM)
  D:\KEIL_V5_C51\C51\LIB\C51S.LIB (?C_INIT)
  D:\KEIL_V5_C51\C51\LIB\C51S.LIB (?C?COPY)
  D:\KEIL_V5_C51\C51\LIB\C51S.LIB (?C?CSTPTR)
  D:\KEIL_V5_C51\C51\LIB\C51S.LIB (?C?CSTOPTR)
  D:\KEIL_V5_C51\C51\LIB\C51S.LIB (?C?ULCMP)
  D:\KEIL_V5_C51\C51\LIB\C51S.LIB (?C?LSTXDATA)
  D:\KEIL_V5_C51\C51\LIB\C51S.LIB (?C?LSTKXDATA)
  D:\KEIL_V5_C51\C51\LIB\C51S.LIB (?C?OFFXADD)


LINK MAP OF MODULE:  .\Objects\ºôÎüµÆpwm (?C_STARTUP)


            TYPE    BASE      LENGTH    RELOCATION   SEGMENT NAME
            -----------------------------------------------------

            * * * * * * *   D A T A   M E M O R Y   * * * * * * *
            REG     0000H     0008H     ABSOLUTE     "REG BANK 0"
            DATA    0008H     0009H     UNIT         _DATA_GROUP_
            DATA    0011H     0002H     UNIT         ?DT?MAIN
            DATA    0013H     0002H     UNIT         ?DT?OS_TASK
            IDATA   0015H     0014H     UNIT         ?ID?OS_TASK
            IDATA   0029H     0001H     UNIT         ?STACK

            * * * * * * *  X D A T A   M E M O R Y  * * * * * * *
            XDATA   0000H     0046H     UNIT         ?XD?OS_TASK
            XDATA   0046H     0028H     UNIT         ?XD?MAIN

            * * * * * * *   C O D E   M E M O R Y   * * * * * * *
            CODE    0000H     0003H     ABSOLUTE     
            CODE    0003H     0002H     UNIT         ?PR?OS_IDLE_TASK?OS_TASK
            CODE    0005H     0001H     UNIT         ?PR?TEST?OS_CPU_A_ASM
                    0006H     0005H                  *** GAP ***
            CODE    000BH     0003H     ABSOLUTE     
            CODE    000EH     0184H     UNIT         ?C?LIB_CODE
            CODE    0192H     00C5H     UNIT         ?PR?TIME_HANDLEHOOK?OS_TASK
            CODE    0257H     009EH     UNIT         ?PR?OS_SWITCH?OS_TASK
            CODE    02F5H     008CH     UNIT         ?C_C51STARTUP
            CODE    0381H     008AH     UNIT         ?PR?_OS_TASK_CREATE?OS_TASK
            CODE    040BH     0056H     UNIT         ?PR?OS_START?OS_TASK
            CODE    0461H     0041H     UNIT         ?PR?MAIN?MAIN
            CODE    04A2H     003CH     UNIT         ?PR?TIMER0_ISR?OS_CPU_A_ASM
            CODE    04DEH     0032H     UNIT         ?PR?TASK2?MAIN
            CODE    0510H     0029H     UNIT         ?PR?TASK1?MAIN
            CODE    0539H     0027H     UNIT         ?PR?_OS_DELAY?OS_TASK
BL51 BANKED LINKER/LOCATER V6.22.2.0                                                  12/28/2023  22:38:22  PAGE 2


            CODE    0560H     001AH     UNIT         ?PR?_?TIME0_HANDLE?MAIN
            CODE    057AH     0013H     UNIT         ?PR?TIMER0_INIT?MAIN
            CODE    058DH     000BH     UNIT         ?C_INITSEG



OVERLAY MAP OF MODULE:   .\Objects\ºôÎüµÆpwm (?C_STARTUP)


SEGMENT                               DATA_GROUP 
  +--> CALLED SEGMENT               START    LENGTH
---------------------------------------------------
?C_C51STARTUP                       -----    -----
  +--> ?PR?MAIN?MAIN
  +--> ?C_INITSEG

?PR?MAIN?MAIN                       -----    -----
  +--> ?PR?TIMER0_INIT?MAIN
  +--> ?PR?TASK1?MAIN
  +--> ?PR?_OS_TASK_CREATE?OS_TASK
  +--> ?PR?TASK2?MAIN
  +--> ?PR?OS_START?OS_TASK

?PR?TASK1?MAIN                      -----    -----
  +--> ?PR?_OS_DELAY?OS_TASK

?PR?_OS_DELAY?OS_TASK               -----    -----
  +--> ?PR?OS_SWITCH?OS_TASK

?PR?_OS_TASK_CREATE?OS_TASK         0008H    0008H

?PR?TASK2?MAIN                      -----    -----
  +--> ?PR?_OS_DELAY?OS_TASK

?PR?OS_START?OS_TASK                -----    -----
  +--> ?PR?OS_IDLE_TASK?OS_TASK
  +--> ?PR?_OS_TASK_CREATE?OS_TASK

*** NEW ROOT ***************************************************

?PR?TIMER0_ISR?OS_CPU_A_ASM         -----    -----
  +--> ?PR?_?TIME0_HANDLE?MAIN

?PR?_?TIME0_HANDLE?MAIN             -----    -----
  +--> ?PR?TIME_HANDLEHOOK?OS_TASK

?PR?TIME_HANDLEHOOK?OS_TASK         0010H    0001H
  +--> ?PR?OS_SWITCH?OS_TASK



SYMBOL TABLE OF MODULE:  .\Objects\ºôÎüµÆpwm (?C_STARTUP)

  VALUE           TYPE          NAME
  ----------------------------------

  -------         MODULE        ?C_STARTUP
BL51 BANKED LINKER/LOCATER V6.22.2.0                                                  12/28/2023  22:38:22  PAGE 3


  C:02F5H         SEGMENT       ?C_C51STARTUP
  I:0029H         SEGMENT       ?STACK
  C:0000H         PUBLIC        ?C_STARTUP
  D:00E0H         SYMBOL        ACC
  D:00F0H         SYMBOL        B
  D:0083H         SYMBOL        DPH
  D:0082H         SYMBOL        DPL
  N:0000H         SYMBOL        IBPSTACK
  N:0100H         SYMBOL        IBPSTACKTOP
  N:0080H         SYMBOL        IDATALEN
  C:02F8H         SYMBOL        IDATALOOP
  N:0000H         SYMBOL        PBPSTACK
  N:0100H         SYMBOL        PBPSTACKTOP
  N:0000H         SYMBOL        PDATALEN
  N:0000H         SYMBOL        PDATASTART
  N:0000H         SYMBOL        PPAGE
  N:0000H         SYMBOL        PPAGEENABLE
  D:00A0H         SYMBOL        PPAGE_SFR
  D:0081H         SYMBOL        SP
  C:02F5H         SYMBOL        STARTUP1
  N:0000H         SYMBOL        XBPSTACK
  N:0000H         SYMBOL        XBPSTACKTOP
  N:0000H         SYMBOL        XDATALEN
  N:0000H         SYMBOL        XDATASTART
  C:0000H         LINE#         126
  C:02F5H         LINE#         133
  C:02F7H         LINE#         134
  C:02F8H         LINE#         135
  C:02F9H         LINE#         136
  C:02FBH         LINE#         185
  C:02FEH         LINE#         196
  -------         ENDMOD        ?C_STARTUP

  -------         MODULE        MAIN
  C:0000H         SYMBOL        _ICE_DUMMY_
  D:0093H         PUBLIC        P0M1
  D:0080H         PUBLIC        P0
  D:0090H         PUBLIC        P1
  D:00A0H         PUBLIC        P2
  D:00B0H         PUBLIC        P3
  D:00C0H         PUBLIC        P4
  D:00C8H         PUBLIC        P5
  D:00E8H         PUBLIC        P6
  B:00A8H.7       PUBLIC        EA
  D:00F8H         PUBLIC        P7
  B:0080H.5       PUBLIC        LED_R
  D:00BAH         PUBLIC        P_SW2
  D:00A8H         PUBLIC        IE
  B:0080H.6       PUBLIC        LED_Y
  D:00B8H         PUBLIC        IP
  D:00D8H         PUBLIC        CCON
  C:0461H         PUBLIC        main
  C:057AH         PUBLIC        Timer0_Init
  C:0560H         PUBLIC        _?time0_handle
  D:0098H         PUBLIC        SCON
  D:0089H         PUBLIC        TMOD
  D:0088H         PUBLIC        TCON
BL51 BANKED LINKER/LOCATER V6.22.2.0                                                  12/28/2023  22:38:22  PAGE 4


  D:008EH         PUBLIC        AUXR
  B:00A8H.1       PUBLIC        ET0
  B:0088H.5       PUBLIC        TF0
  D:008CH         PUBLIC        TH0
  D:0011H         PUBLIC        cut
  D:008AH         PUBLIC        TL0
  B:0088H.4       PUBLIC        TR0
  X:0046H         PUBLIC        task_stack1
  X:005AH         PUBLIC        task_stack2
  C:0510H         PUBLIC        task1
  C:04DEH         PUBLIC        task2
  D:00D0H         PUBLIC        PSW
  B:0080H.7       PUBLIC        LED_G
  D:0094H         PUBLIC        P0M0
  -------         PROC          TASK1
  C:0510H         LINE#         29
  C:0510H         LINE#         30
  C:0510H         LINE#         31
  C:0510H         LINE#         32
  C:0510H         LINE#         33
  C:0512H         LINE#         34
  C:051DH         LINE#         36
  C:051FH         LINE#         37
  C:052AH         LINE#         39
  C:052CH         LINE#         40
  C:0537H         LINE#         42
  -------         ENDPROC       TASK1
  -------         PROC          TASK2
  C:04DEH         LINE#         45
  C:04DEH         LINE#         46
  C:04DEH         LINE#         48
  C:04DEH         LINE#         49
  C:04DEH         LINE#         50
  C:04E0H         LINE#         51
  C:04EBH         LINE#         52
  C:04F6H         LINE#         54
  C:04F8H         LINE#         55
  C:0503H         LINE#         56
  C:050EH         LINE#         58
  -------         ENDPROC       TASK2
  -------         PROC          TIMER0_INIT
  C:057AH         LINE#         63
  C:057AH         LINE#         64
  C:057AH         LINE#         65
  C:057DH         LINE#         66
  C:0580H         LINE#         67
  C:0583H         LINE#         68
  C:0586H         LINE#         69
  C:0588H         LINE#         70
  C:058AH         LINE#         71
  C:058CH         LINE#         72
  -------         ENDPROC       TIMER0_INIT
  -------         PROC          _?TIME0_HANDLE
  C:0560H         LINE#         77
  C:0560H         LINE#         80
  C:0568H         LINE#         82
  C:0570H         LINE#         83
BL51 BANKED LINKER/LOCATER V6.22.2.0                                                  12/28/2023  22:38:22  PAGE 5


  C:0570H         LINE#         84
  C:0575H         LINE#         85
  C:0577H         LINE#         86
  C:0577H         LINE#         87
  -------         ENDPROC       _?TIME0_HANDLE
  -------         PROC          MAIN
  C:0461H         LINE#         91
  C:0461H         LINE#         92
  C:0461H         LINE#         93
  C:0464H         LINE#         94
  C:0466H         LINE#         95
  C:0469H         LINE#         96
  C:046BH         LINE#         97
  C:046EH         LINE#         99
  C:0485H         LINE#         100
  C:049DH         LINE#         101
  C:04A0H         LINE#         104
  C:04A0H         LINE#         105
  C:04A0H         LINE#         107
  -------         ENDPROC       MAIN
  -------         ENDMOD        MAIN

  -------         MODULE        OS_TASK
  C:0000H         SYMBOL        _ICE_DUMMY_
  D:0080H         PUBLIC        P0
  D:0090H         PUBLIC        P1
  D:00A0H         PUBLIC        P2
  D:00B0H         PUBLIC        P3
  D:00C0H         PUBLIC        P4
  D:00C8H         PUBLIC        P5
  D:00E8H         PUBLIC        P6
  B:00A8H.7       PUBLIC        EA
  D:00F8H         PUBLIC        P7
  D:00A8H         PUBLIC        IE
  C:0192H         PUBLIC        time_handleHook
  D:00B8H         PUBLIC        IP
  D:0081H         PUBLIC        SP
  D:00D8H         PUBLIC        CCON
  X:0000H         PUBLIC        task_idle_stack
  D:0098H         PUBLIC        SCON
  D:0088H         PUBLIC        TCON
  C:0381H         PUBLIC        _os_task_create
  C:0539H         PUBLIC        _os_delay
  X:0014H         PUBLIC        tcb_list
  C:0257H         PUBLIC        os_switch
  D:0013H         PUBLIC        max_task
  D:0014H         PUBLIC        task_id
  C:040BH         PUBLIC        os_start
  C:0003H         PUBLIC        os_idle_task
  D:00D0H         PUBLIC        PSW
  I:0015H         SYMBOL        public_stack
  -------         PROC          OS_SWITCH
  -------         DO            
  D:0007H         SYMBOL        ost_i
  -------         ENDDO         
  C:0257H         LINE#         28
  C:0257H         LINE#         29
BL51 BANKED LINKER/LOCATER V6.22.2.0                                                  12/28/2023  22:38:22  PAGE 6


  C:0257H         LINE#         31
  C:0258H         LINE#         35
  C:0280H         LINE#         38
  C:0296H         LINE#         40
  C:029EH         LINE#         41
  C:029EH         LINE#         42
  C:02B1H         LINE#         43
  C:02B1H         LINE#         44
  C:02B3H         LINE#         45
  C:02B3H         LINE#         47
  C:02B3H         LINE#         48
  C:02B6H         LINE#         49
  C:02BBH         LINE#         50
  C:02BBH         LINE#         51
  C:02BEH         LINE#         52
  C:02BEH         LINE#         54
  C:02D1H         LINE#         57
  -------         ENDPROC       OS_SWITCH
  -------         PROC          _OS_TASK_CREATE
  D:0008H         SYMBOL        task
  D:000BH         SYMBOL        t_stack
  D:000EH         SYMBOL        tid
  C:0381H         LINE#         73
  C:0387H         LINE#         74
  C:0387H         LINE#         75
  C:039AH         LINE#         76
  C:039AH         LINE#         78
  C:039AH         LINE#         79
  C:03A6H         LINE#         80
  C:03B4H         LINE#         82
  C:03D0H         LINE#         83
  C:03E8H         LINE#         85
  C:0408H         LINE#         88
  C:040AH         LINE#         89
  -------         ENDPROC       _OS_TASK_CREATE
  -------         PROC          OS_START
  C:040BH         LINE#         97
  C:040BH         LINE#         98
  C:040BH         LINE#         99
  C:040DH         LINE#         101
  C:0424H         LINE#         104
  C:0427H         LINE#         106
  C:044BH         LINE#         108
  C:045EH         LINE#         111
  C:0460H         LINE#         113
  -------         ENDPROC       OS_START
  -------         PROC          _OS_DELAY
  D:0004H         SYMBOL        tasks
  C:0539H         LINE#         122
  C:0539H         LINE#         123
  C:0539H         LINE#         124
  C:0539H         LINE#         126
  C:054BH         LINE#         128
  C:055DH         LINE#         130
  -------         ENDPROC       _OS_DELAY
  -------         PROC          OS_IDLE_TASK
  C:0003H         LINE#         141
BL51 BANKED LINKER/LOCATER V6.22.2.0                                                  12/28/2023  22:38:22  PAGE 7


  C:0003H         LINE#         142
  C:0003H         LINE#         143
  -------         ENDPROC       OS_IDLE_TASK
  -------         PROC          TIME_HANDLEHOOK
  -------         DO            
  D:0010H         SYMBOL        ti
  -------         ENDDO         
  C:0192H         LINE#         153
  C:0192H         LINE#         154
  C:0192H         LINE#         155
  C:0195H         LINE#         158
  C:01A1H         LINE#         159
  C:01A1H         LINE#         160
  C:01B8H         LINE#         161
  C:01B8H         LINE#         162
  C:01B8H         LINE#         163
  C:01B8H         LINE#         165
  C:01EBH         LINE#         166
  C:01EBH         LINE#         167
  C:0201H         LINE#         169
  C:0213H         LINE#         170
  C:0215H         LINE#         171
  C:0215H         LINE#         172
  C:024FH         LINE#         173
  C:0254H         LINE#         174
  -------         ENDPROC       TIME_HANDLEHOOK
  -------         ENDMOD        OS_TASK

  -------         MODULE        OS_CPU_A_ASM
  C:0005H         SEGMENT       ?PR?TEST?OS_CPU_A_ASM
  C:04A2H         SEGMENT       ?PR?TIMER0_ISR?OS_CPU_A_ASM
  C:0005H         PUBLIC        TEST
  D:00E0H         SYMBOL        ACC
  D:00F0H         SYMBOL        B
  D:0083H         SYMBOL        DPH
  D:0082H         SYMBOL        DPL
  B:00A8H.7       SYMBOL        EA
  N:0000H         SYMBOL        OS_CPU_A_ASM
  D:00D0H         SYMBOL        PSW
  C:04A2H         SYMBOL        TIMER0_ISR
  C:0005H         LINE#         75
  C:04A2H         LINE#         83
  C:04A4H         LINE#         84
  C:04A6H         LINE#         84
  C:04A8H         LINE#         84
  C:04AAH         LINE#         84
  C:04ACH         LINE#         84
  C:04AEH         LINE#         84
  C:04B0H         LINE#         84
  C:04B2H         LINE#         84
  C:04B4H         LINE#         84
  C:04B6H         LINE#         84
  C:04B8H         LINE#         84
  C:04BAH         LINE#         84
  C:04BCH         LINE#         84
  C:04BEH         LINE#         86
  C:04C1H         LINE#         88
BL51 BANKED LINKER/LOCATER V6.22.2.0                                                  12/28/2023  22:38:22  PAGE 8


  C:04C3H         LINE#         88
  C:04C5H         LINE#         88
  C:04C7H         LINE#         88
  C:04C9H         LINE#         88
  C:04CBH         LINE#         88
  C:04CDH         LINE#         88
  C:04CFH         LINE#         88
  C:04D1H         LINE#         88
  C:04D3H         LINE#         88
  C:04D5H         LINE#         88
  C:04D7H         LINE#         88
  C:04D9H         LINE#         88
  C:04DBH         LINE#         89
  C:04DDH         LINE#         91
  C:000BH         LINE#         96
  -------         ENDMOD        OS_CPU_A_ASM

  -------         MODULE        ?C?COPY
  C:00DEH         PUBLIC        ?C?COPY
  -------         ENDMOD        ?C?COPY

  -------         MODULE        ?C?CSTPTR
  C:0104H         PUBLIC        ?C?CSTPTR
  -------         ENDMOD        ?C?CSTPTR

  -------         MODULE        ?C?CSTOPTR
  C:0116H         PUBLIC        ?C?CSTOPTR
  -------         ENDMOD        ?C?CSTOPTR

  -------         MODULE        ?C?ULCMP
  C:0138H         PUBLIC        ?C?ULCMP
  -------         ENDMOD        ?C?ULCMP

  -------         MODULE        ?C?LSTXDATA
  C:0149H         PUBLIC        ?C?LSTXDATA
  -------         ENDMOD        ?C?LSTXDATA

  -------         MODULE        ?C?LSTKXDATA
  C:0155H         PUBLIC        ?C?LSTKXDATA
  -------         ENDMOD        ?C?LSTKXDATA

  -------         MODULE        ?C?OFFXADD
  C:0186H         PUBLIC        ?C?OFFXADD
  -------         ENDMOD        ?C?OFFXADD

*** WARNING L16: UNCALLED SEGMENT, IGNORED FOR OVERLAY PROCESS
    SEGMENT: ?PR?TEST?OS_CPU_A_ASM

Program Size: data=42.0 xdata=110 code=1427
LINK/LOCATE RUN COMPLETE.  1 WARNING(S),  0 ERROR(S)
