BL51 BANKED LINKER/LOCATER V6.22.4.0                                                    01/02/2024  16:55:54  PAGE 1


BL51 BANKED LINKER/LOCATER V6.22.4.0, INVOKED BY:
C:\KEIL_V5\C51\BIN\BL51.EXE .\Objects\STARTUP.obj, .\Objects\main.obj, .\Objects\ringBuffer.obj, .\Objects\os_mcu.obj, .
>> \Objects\os_task.obj, .\Objects\os_queue.obj TO .\Objects\ºôÎüµÆpwm PRINT (.\Listings\ºôÎüµÆpwm.m51) RAMSIZE (256)


MEMORY MODEL: SMALL


INPUT MODULES INCLUDED:
  .\Objects\STARTUP.obj (?C_STARTUP)
  .\Objects\main.obj (MAIN)
  .\Objects\ringBuffer.obj (RINGBUFFER)
  .\Objects\os_mcu.obj (OS_CPU_A_ASM)
  .\Objects\os_task.obj (OS_TASK)
  .\Objects\os_queue.obj (OS_QUEUE)
  C:\KEIL_V5\C51\LIB\C51S.LIB (?C_INIT)
  C:\KEIL_V5\C51\LIB\C51S.LIB (?C?COPY)
  C:\KEIL_V5\C51\LIB\C51S.LIB (?C?CLDOPTR)
  C:\KEIL_V5\C51\LIB\C51S.LIB (?C?CSTPTR)
  C:\KEIL_V5\C51\LIB\C51S.LIB (?C?CSTOPTR)
  C:\KEIL_V5\C51\LIB\C51S.LIB (?C?IMUL)
  C:\KEIL_V5\C51\LIB\C51S.LIB (?C?ULCMP)
  C:\KEIL_V5\C51\LIB\C51S.LIB (?C?LSTXDATA)
  C:\KEIL_V5\C51\LIB\C51S.LIB (?C?LSTKXDATA)
  C:\KEIL_V5\C51\LIB\C51S.LIB (?C?OFFXADD)
  C:\KEIL_V5\C51\LIB\C51S.LIB (?C?PLDPTR)
  C:\KEIL_V5\C51\LIB\C51S.LIB (?C?PSTPTR)
  C:\KEIL_V5\C51\LIB\C51S.LIB (?C?PLDOPTR)
  C:\KEIL_V5\C51\LIB\C51S.LIB (?C?PSTOPTR)
  C:\KEIL_V5\C51\LIB\C51S.LIB (?C?MEMSET)
  C:\KEIL_V5\C51\LIB\C51S.LIB (?C?PLDIDATA)
  C:\KEIL_V5\C51\LIB\C51S.LIB (?C?PSTIDATA)
  C:\KEIL_V5\C51\LIB\C51S.LIB (?C?PLDXDATA)
  C:\KEIL_V5\C51\LIB\C51S.LIB (?C?PSTXDATA)
  C:\KEIL_V5\C51\LIB\C51S.LIB (?C?PLDPDATA)
  C:\KEIL_V5\C51\LIB\C51S.LIB (?C?PSTPDATA)
  C:\KEIL_V5\C51\LIB\C51S.LIB (?C?PLDCODE)


LINK MAP OF MODULE:  .\Objects\ºôÎüµÆpwm (?C_STARTUP)


            TYPE    BASE      LENGTH    RELOCATION   SEGMENT NAME
            -----------------------------------------------------

            * * * * * * *   D A T A   M E M O R Y   * * * * * * *
            REG     0000H     0008H     ABSOLUTE     "REG BANK 0"
            DATA    0008H     0024H     UNIT         _DATA_GROUP_
            DATA    002CH     0009H     UNIT         ?DT?_RINGBUFFER_READ?RINGBUFFER
            DATA    0035H     0002H     UNIT         ?DT?MAIN
            DATA    0037H     0002H     UNIT         ?DT?OS_TASK
            IDATA   0039H     0014H     UNIT         ?ID?OS_TASK
            IDATA   004DH     0001H     UNIT         ?STACK

            * * * * * * *  X D A T A   M E M O R Y  * * * * * * *
            XDATA   0000H     0076H     UNIT         ?XD?MAIN
            XDATA   0076H     0050H     UNIT         ?XD?OS_TASK

BL51 BANKED LINKER/LOCATER V6.22.4.0                                                  01/02/2024  16:55:54  PAGE 2


            * * * * * * *   C O D E   M E M O R Y   * * * * * * *
            CODE    0000H     0003H     ABSOLUTE     
            CODE    0003H     0003H     UNIT         ?PR?_?TIME0_HANDLE?MAIN
            CODE    0006H     0002H     UNIT         ?PR?OS_IDLE_TASK?OS_TASK
                    0008H     0003H                  *** GAP ***
            CODE    000BH     0003H     ABSOLUTE     
            CODE    000EH     0329H     UNIT         ?C?LIB_CODE
            CODE    0337H     0130H     UNIT         ?PR?_RINGBUFFER_READ?RINGBUFFER
            CODE    0467H     00C7H     UNIT         ?PR?_RINGBUFFER_WRITE?RINGBUFFER
            CODE    052EH     00C1H     UNIT         ?PR?TIME_HANDLEHOOK?OS_TASK
            CODE    05EFH     008CH     UNIT         ?C_C51STARTUP
            CODE    067BH     008AH     UNIT         ?PR?_OS_TASK_CREATE?OS_TASK
            CODE    0705H     0083H     UNIT         ?PR?TASK3?MAIN
            CODE    0788H     0078H     UNIT         ?PR?OS_TASKSWTICH?OS_TASK
            CODE    0800H     0064H     UNIT         ?PR?_RINGBUFFER_CREATED?RINGBUFFER
            CODE    0864H     0062H     UNIT         ?PR?MAIN?MAIN
            CODE    08C6H     0057H     UNIT         ?PR?OS_START?OS_TASK
            CODE    091DH     0057H     UNIT         ?PR?_OS_QUEUECREATE?OS_QUEUE
            CODE    0974H     0054H     UNIT         ?PR?_OS_QUEUESEND?OS_QUEUE
            CODE    09C8H     003CH     UNIT         ?PR?OSTICKISR?OS_CPU_A_ASM
            CODE    0A04H     0032H     UNIT         ?PR?TASK2?MAIN
            CODE    0A36H     0027H     UNIT         ?PR?_OS_DELAY?OS_TASK
            CODE    0A5DH     0021H     UNIT         ?PR?OS_GETTASKIDHIGHPRIORITY?OS_TASK
            CODE    0A7EH     0013H     UNIT         ?PR?TIMER0_INIT?MAIN
            CODE    0A91H     000FH     UNIT         ?PR?OS_INIT?OS_TASK
            CODE    0AA0H     000DH     UNIT         ?PR?TASK1?MAIN
            CODE    0AADH     000BH     UNIT         ?C_INITSEG



OVERLAY MAP OF MODULE:   .\Objects\ºôÎüµÆpwm (?C_STARTUP)


SEGMENT                                        DATA_GROUP 
  +--> CALLED SEGMENT                        START    LENGTH
------------------------------------------------------------
?C_C51STARTUP                                -----    -----
  +--> ?PR?MAIN?MAIN
  +--> ?C_INITSEG

?PR?MAIN?MAIN                                -----    -----
  +--> ?PR?TIMER0_INIT?MAIN
  +--> ?PR?OS_INIT?OS_TASK
  +--> ?PR?TASK1?MAIN
  +--> ?PR?_OS_TASK_CREATE?OS_TASK
  +--> ?PR?TASK2?MAIN
  +--> ?PR?TASK3?MAIN
  +--> ?PR?OS_START?OS_TASK

?PR?TASK1?MAIN                               -----    -----
  +--> ?PR?_OS_DELAY?OS_TASK

?PR?_OS_DELAY?OS_TASK                        -----    -----
  +--> ?PR?OS_TASKSWTICH?OS_TASK

?PR?OS_TASKSWTICH?OS_TASK                    -----    -----
  +--> ?PR?OS_GETTASKIDHIGHPRIORITY?OS_TASK
BL51 BANKED LINKER/LOCATER V6.22.4.0                                                  01/02/2024  16:55:54  PAGE 3



?PR?_OS_TASK_CREATE?OS_TASK                  0008H    0008H

?PR?TASK2?MAIN                               -----    -----
  +--> ?PR?_OS_DELAY?OS_TASK

?PR?TASK3?MAIN                               0008H    0008H
  +--> ?PR?_OS_QUEUECREATE?OS_QUEUE
  +--> ?PR?_OS_DELAY?OS_TASK
  +--> ?PR?_OS_QUEUESEND?OS_QUEUE

?PR?_OS_QUEUECREATE?OS_QUEUE                 0010H    0013H
  +--> ?PR?_RINGBUFFER_CREATED?RINGBUFFER

?PR?_RINGBUFFER_CREATED?RINGBUFFER           0023H    0008H

?PR?_OS_QUEUESEND?OS_QUEUE                   0010H    000BH
  +--> ?PR?_RINGBUFFER_WRITE?RINGBUFFER
  +--> ?PR?_OS_DELAY?OS_TASK

?PR?_RINGBUFFER_WRITE?RINGBUFFER             001BH    0009H

?PR?OS_START?OS_TASK                         -----    -----
  +--> ?PR?OS_IDLE_TASK?OS_TASK
  +--> ?PR?_OS_TASK_CREATE?OS_TASK

*** NEW ROOT ***************************************************

?PR?OSTICKISR?OS_CPU_A_ASM                   -----    -----
  +--> ?PR?_?TIME0_HANDLE?MAIN

?PR?_?TIME0_HANDLE?MAIN                      -----    -----
  +--> ?PR?TIME_HANDLEHOOK?OS_TASK

?PR?TIME_HANDLEHOOK?OS_TASK                  002BH    0001H
  +--> ?PR?OS_TASKSWTICH?OS_TASK



SYMBOL TABLE OF MODULE:  .\Objects\ºôÎüµÆpwm (?C_STARTUP)

  VALUE           TYPE          NAME
  ----------------------------------

  -------         MODULE        ?C_STARTUP
  C:05EFH         SEGMENT       ?C_C51STARTUP
  I:004DH         SEGMENT       ?STACK
  C:0000H         PUBLIC        ?C_STARTUP
  D:00E0H         SYMBOL        ACC
  D:00F0H         SYMBOL        B
  D:0083H         SYMBOL        DPH
  D:0082H         SYMBOL        DPL
  N:0000H         SYMBOL        IBPSTACK
  N:0100H         SYMBOL        IBPSTACKTOP
  N:0080H         SYMBOL        IDATALEN
  C:05F2H         SYMBOL        IDATALOOP
  N:0000H         SYMBOL        PBPSTACK
BL51 BANKED LINKER/LOCATER V6.22.4.0                                                  01/02/2024  16:55:54  PAGE 4


  N:0100H         SYMBOL        PBPSTACKTOP
  N:0000H         SYMBOL        PDATALEN
  N:0000H         SYMBOL        PDATASTART
  N:0000H         SYMBOL        PPAGE
  N:0000H         SYMBOL        PPAGEENABLE
  D:00A0H         SYMBOL        PPAGE_SFR
  D:0081H         SYMBOL        SP
  C:05EFH         SYMBOL        STARTUP1
  N:0000H         SYMBOL        XBPSTACK
  N:0000H         SYMBOL        XBPSTACKTOP
  N:0000H         SYMBOL        XDATALEN
  N:0000H         SYMBOL        XDATASTART
  C:0000H         LINE#         126
  C:05EFH         LINE#         133
  C:05F1H         LINE#         134
  C:05F2H         LINE#         135
  C:05F3H         LINE#         136
  C:05F5H         LINE#         185
  C:05F8H         LINE#         196
  -------         ENDMOD        ?C_STARTUP

  -------         MODULE        MAIN
  C:0000H         SYMBOL        _ICE_DUMMY_
  D:0093H         PUBLIC        P0M1
  D:0080H         PUBLIC        P0
  D:00B2H         PUBLIC        P3M0
  D:0090H         PUBLIC        P1
  D:00B1H         PUBLIC        P3M1
  D:00A0H         PUBLIC        P2
  D:00B0H         PUBLIC        P3
  D:00C0H         PUBLIC        P4
  D:00C8H         PUBLIC        P5
  D:00E8H         PUBLIC        P6
  B:00A8H.7       PUBLIC        EA
  D:00F8H         PUBLIC        P7
  B:0080H.5       PUBLIC        LED_R
  D:00BAH         PUBLIC        P_SW2
  D:00A8H         PUBLIC        IE
  B:0080H.6       PUBLIC        LED_Y
  D:00B8H         PUBLIC        IP
  D:00D8H         PUBLIC        CCON
  C:0864H         PUBLIC        main
  C:0A7EH         PUBLIC        Timer0_Init
  X:0000H         PUBLIC        queue_buff
  C:0003H         PUBLIC        _?time0_handle
  D:0098H         PUBLIC        SCON
  D:0089H         PUBLIC        TMOD
  D:0088H         PUBLIC        TCON
  X:0023H         PUBLIC        queue_1
  D:008EH         PUBLIC        AUXR
  B:00A8H.1       PUBLIC        ET0
  B:0088H.5       PUBLIC        TF0
  D:008CH         PUBLIC        TH0
  D:0035H         PUBLIC        cut
  D:008AH         PUBLIC        TL0
  B:0088H.4       PUBLIC        TR0
  X:003AH         PUBLIC        task_stack1
BL51 BANKED LINKER/LOCATER V6.22.4.0                                                  01/02/2024  16:55:54  PAGE 5


  X:004EH         PUBLIC        task_stack2
  X:0062H         PUBLIC        task_stack3
  C:0AA0H         PUBLIC        task1
  C:0A04H         PUBLIC        task2
  C:0705H         PUBLIC        task3
  D:00D0H         PUBLIC        PSW
  B:0080H.7       PUBLIC        LED_G
  B:00B0H.5       PUBLIC        K3
  D:0094H         PUBLIC        P0M0
  -------         PROC          TASK1
  C:0AA0H         LINE#         33
  C:0AA0H         LINE#         34
  C:0AA0H         LINE#         35
  C:0AA0H         LINE#         36
  C:0AA0H         LINE#         40
  C:0AABH         LINE#         43
  -------         ENDPROC       TASK1
  -------         PROC          TASK2
  C:0A04H         LINE#         46
  C:0A04H         LINE#         47
  C:0A04H         LINE#         49
  C:0A04H         LINE#         50
  C:0A04H         LINE#         51
  C:0A06H         LINE#         52
  C:0A11H         LINE#         53
  C:0A1CH         LINE#         55
  C:0A1EH         LINE#         56
  C:0A29H         LINE#         57
  C:0A34H         LINE#         59
  -------         ENDPROC       TASK2
  -------         PROC          TASK3
  -------         DO            
  D:0008H         SYMBOL        ret
  -------         DO            
  D:0009H         SYMBOL        test
  -------         ENDDO         
  -------         ENDDO         
  C:0705H         LINE#         70
  C:0705H         LINE#         71
  C:0705H         LINE#         72
  C:0708H         LINE#         76
  C:0720H         LINE#         78
  C:0720H         LINE#         79
  C:0720H         LINE#         81
  C:0723H         LINE#         82
  C:0727H         LINE#         83
  C:072FH         LINE#         84
  C:0732H         LINE#         85
  C:0732H         LINE#         86
  C:073AH         LINE#         87
  C:073DH         LINE#         88
  C:073DH         LINE#         89
  C:0747H         LINE#         92
  C:0764H         LINE#         93
  C:0767H         LINE#         94
  C:0767H         LINE#         95
  C:0769H         LINE#         96
BL51 BANKED LINKER/LOCATER V6.22.4.0                                                  01/02/2024  16:55:54  PAGE 6


  C:0769H         LINE#         97
  C:076CH         LINE#         98
  C:076CH         LINE#         99
  C:076CH         LINE#         100
  C:076EH         LINE#         101
  C:0779H         LINE#         103
  C:077BH         LINE#         104
  C:0786H         LINE#         107
  -------         ENDPROC       TASK3
  -------         PROC          TIMER0_INIT
  C:0A7EH         LINE#         112
  C:0A7EH         LINE#         113
  C:0A7EH         LINE#         114
  C:0A81H         LINE#         115
  C:0A84H         LINE#         116
  C:0A87H         LINE#         117
  C:0A8AH         LINE#         118
  C:0A8CH         LINE#         119
  C:0A8EH         LINE#         120
  C:0A90H         LINE#         121
  -------         ENDPROC       TIMER0_INIT
  -------         PROC          _?TIME0_HANDLE
  C:0003H         LINE#         125
  C:0003H         LINE#         135
  -------         ENDPROC       _?TIME0_HANDLE
  -------         PROC          MAIN
  C:0864H         LINE#         142
  C:0864H         LINE#         143
  C:0864H         LINE#         144
  C:0866H         LINE#         145
  C:0869H         LINE#         146
  C:086BH         LINE#         149
  C:086DH         LINE#         150
  C:0870H         LINE#         153
  C:0873H         LINE#         154
  C:0876H         LINE#         155
  C:0879H         LINE#         157
  C:0891H         LINE#         158
  C:08A9H         LINE#         159
  C:08C1H         LINE#         161
  C:08C4H         LINE#         164
  C:08C4H         LINE#         165
  C:08C4H         LINE#         167
  -------         ENDPROC       MAIN
  -------         ENDMOD        MAIN

  -------         MODULE        RINGBUFFER
  C:0000H         SYMBOL        _ICE_DUMMY_
  D:0080H         PUBLIC        P0
  D:0090H         PUBLIC        P1
  D:00A0H         PUBLIC        P2
  D:00B0H         PUBLIC        P3
  D:00C0H         PUBLIC        P4
  D:00C8H         PUBLIC        P5
  D:00E8H         PUBLIC        P6
  D:00F8H         PUBLIC        P7
  D:00A8H         PUBLIC        IE
BL51 BANKED LINKER/LOCATER V6.22.4.0                                                  01/02/2024  16:55:54  PAGE 7


  D:00B8H         PUBLIC        IP
  D:00D8H         PUBLIC        CCON
  C:0337H         PUBLIC        _ringbuffer_read
  D:0098H         PUBLIC        SCON
  D:0088H         PUBLIC        TCON
  C:0467H         PUBLIC        _ringbuffer_write
  C:0800H         PUBLIC        _ringbuffer_created
  D:00D0H         PUBLIC        PSW
  -------         PROC          _RINGBUFFER_CREATED
  D:0023H         SYMBOL        ring_buffer
  D:0026H         SYMBOL        buff
  D:0029H         SYMBOL        buff_size
  D:002AH         SYMBOL        itemSize
  C:0800H         LINE#         21
  C:0806H         LINE#         22
  C:0806H         LINE#         25
  C:081BH         LINE#         26
  C:0833H         LINE#         27
  C:0841H         LINE#         28
  C:0849H         LINE#         29
  C:0861H         LINE#         32
  C:0863H         LINE#         33
  -------         ENDPROC       _RINGBUFFER_CREATED
  -------         PROC          _RINGBUFFER_WRITE
  D:001BH         SYMBOL        ring_buffer
  D:001EH         SYMBOL        _data
  -------         DO            
  D:0021H         SYMBOL        next_w
  -------         ENDDO         
  C:0467H         LINE#         44
  C:046DH         LINE#         45
  C:046DH         LINE#         46
  C:0498H         LINE#         50
  C:04B6H         LINE#         52
  C:04B9H         LINE#         54
  C:04B9H         LINE#         57
  C:04ECH         LINE#         59
  C:04EFH         LINE#         60
  C:04EFH         LINE#         62
  C:0513H         LINE#         63
  C:052BH         LINE#         64
  C:052DH         LINE#         65
  -------         ENDPROC       _RINGBUFFER_WRITE
  -------         PROC          _RINGBUFFER_READ
  D:002CH         SYMBOL        ring_buffer
  D:002FH         SYMBOL        _data
  -------         DO            
  D:0032H         SYMBOL        next_r
  -------         ENDDO         
  C:0337H         LINE#         77
  C:033DH         LINE#         78
  C:033DH         LINE#         81
  C:0355H         LINE#         84
  C:03ACH         LINE#         86
  C:03ACH         LINE#         87
  C:03C7H         LINE#         89
  C:03E2H         LINE#         90
BL51 BANKED LINKER/LOCATER V6.22.4.0                                                  01/02/2024  16:55:54  PAGE 8


  C:0400H         LINE#         91
  C:0403H         LINE#         92
  C:0403H         LINE#         95
  C:0431H         LINE#         96
  C:0434H         LINE#         97
  C:0434H         LINE#         100
  C:044FH         LINE#         101
  C:0464H         LINE#         104
  C:0466H         LINE#         105
  -------         ENDPROC       _RINGBUFFER_READ
  -------         ENDMOD        RINGBUFFER

  -------         MODULE        OS_CPU_A_ASM
  C:09C8H         SEGMENT       ?PR?OSTICKISR?OS_CPU_A_ASM
  D:00E0H         SYMBOL        ACC
  D:00F0H         SYMBOL        B
  D:0083H         SYMBOL        DPH
  D:0082H         SYMBOL        DPL
  B:00A8H.7       SYMBOL        EA
  C:09C8H         SYMBOL        OSTICKISR
  N:0000H         SYMBOL        OS_CPU_A_ASM
  D:00D0H         SYMBOL        PSW
  C:09C8H         LINE#         61
  C:09CAH         LINE#         62
  C:09CCH         LINE#         62
  C:09CEH         LINE#         62
  C:09D0H         LINE#         62
  C:09D2H         LINE#         62
  C:09D4H         LINE#         62
  C:09D6H         LINE#         62
  C:09D8H         LINE#         62
  C:09DAH         LINE#         62
  C:09DCH         LINE#         62
  C:09DEH         LINE#         62
  C:09E0H         LINE#         62
  C:09E2H         LINE#         62
  C:09E4H         LINE#         64
  C:09E7H         LINE#         66
  C:09E9H         LINE#         66
  C:09EBH         LINE#         66
  C:09EDH         LINE#         66
  C:09EFH         LINE#         66
  C:09F1H         LINE#         66
  C:09F3H         LINE#         66
  C:09F5H         LINE#         66
  C:09F7H         LINE#         66
  C:09F9H         LINE#         66
  C:09FBH         LINE#         66
  C:09FDH         LINE#         66
  C:09FFH         LINE#         66
  C:0A01H         LINE#         67
  C:0A03H         LINE#         69
  C:000BH         LINE#         74
  -------         ENDMOD        OS_CPU_A_ASM

  -------         MODULE        OS_TASK
  C:0000H         SYMBOL        _ICE_DUMMY_
BL51 BANKED LINKER/LOCATER V6.22.4.0                                                  01/02/2024  16:55:54  PAGE 9


  D:0080H         PUBLIC        P0
  D:0090H         PUBLIC        P1
  D:00A0H         PUBLIC        P2
  D:00B0H         PUBLIC        P3
  D:00C0H         PUBLIC        P4
  D:00C8H         PUBLIC        P5
  D:00E8H         PUBLIC        P6
  B:00A8H.7       PUBLIC        EA
  D:00F8H         PUBLIC        P7
  D:00A8H         PUBLIC        IE
  C:052EH         PUBLIC        time_handleHook
  D:00B8H         PUBLIC        IP
  D:0081H         PUBLIC        SP
  D:00D8H         PUBLIC        CCON
  X:0076H         PUBLIC        task_idle_stack
  D:0098H         PUBLIC        SCON
  C:0A5DH         PUBLIC        os_getTaskIdHighPriority
  D:0088H         PUBLIC        TCON
  C:067BH         PUBLIC        _os_task_create
  C:0A36H         PUBLIC        _os_delay
  X:008AH         PUBLIC        tcb_list
  D:0037H         PUBLIC        max_task
  D:0038H         PUBLIC        task_id
  C:0788H         PUBLIC        os_taskSwtich
  C:08C6H         PUBLIC        os_start
  C:0006H         PUBLIC        os_idle_task
  C:0A91H         PUBLIC        os_init
  D:00D0H         PUBLIC        PSW
  I:0039H         SYMBOL        public_stack
  -------         PROC          OS_GETTASKIDHIGHPRIORITY
  -------         DO            
  D:0007H         SYMBOL        ost_i
  -------         ENDDO         
  C:0A5DH         LINE#         20
  C:0A5DH         LINE#         21
  C:0A5DH         LINE#         22
  C:0A5FH         LINE#         24
  C:0A5FH         LINE#         25
  C:0A5FH         LINE#         27
  C:0A64H         LINE#         28
  C:0A64H         LINE#         29
  C:0A64H         LINE#         30
  C:0A64H         LINE#         31
  C:0A76H         LINE#         32
  C:0A76H         LINE#         33
  C:0A78H         LINE#         34
  C:0A79H         LINE#         35
  C:0A79H         LINE#         36
  C:0A7DH         LINE#         37
  -------         ENDPROC       OS_GETTASKIDHIGHPRIORITY
  -------         PROC          OS_TASKSWTICH
  C:0788H         LINE#         45
  C:0788H         LINE#         46
  C:0788H         LINE#         52
  C:07B0H         LINE#         55
  C:07C6H         LINE#         57
  C:07C9H         LINE#         60
BL51 BANKED LINKER/LOCATER V6.22.4.0                                                  01/02/2024  16:55:54  PAGE 10


  C:07DCH         LINE#         63
  -------         ENDPROC       OS_TASKSWTICH
  -------         PROC          _OS_TASK_CREATE
  D:0008H         SYMBOL        task
  D:000BH         SYMBOL        t_stack
  D:000EH         SYMBOL        tid
  C:067BH         LINE#         81
  C:0681H         LINE#         82
  C:0681H         LINE#         83
  C:0694H         LINE#         84
  C:0694H         LINE#         86
  C:0694H         LINE#         87
  C:06A0H         LINE#         88
  C:06AEH         LINE#         90
  C:06CAH         LINE#         91
  C:06E2H         LINE#         93
  C:0702H         LINE#         96
  C:0704H         LINE#         97
  -------         ENDPROC       _OS_TASK_CREATE
  -------         PROC          OS_START
  C:08C6H         LINE#         105
  C:08C6H         LINE#         106
  C:08C6H         LINE#         107
  C:08C8H         LINE#         109
  C:08E0H         LINE#         112
  C:08E3H         LINE#         114
  C:0907H         LINE#         116
  C:091AH         LINE#         119
  C:091CH         LINE#         121
  -------         ENDPROC       OS_START
  -------         PROC          OS_INIT
  C:0A91H         LINE#         122
  C:0A91H         LINE#         123
  C:0A91H         LINE#         125
  -------         ENDPROC       OS_INIT
  -------         PROC          _OS_DELAY
  D:0004H         SYMBOL        tasks
  C:0A36H         LINE#         135
  C:0A36H         LINE#         136
  C:0A36H         LINE#         137
  C:0A36H         LINE#         139
  C:0A48H         LINE#         141
  C:0A5AH         LINE#         143
  -------         ENDPROC       _OS_DELAY
  -------         PROC          OS_IDLE_TASK
  C:0006H         LINE#         154
  C:0006H         LINE#         155
  C:0006H         LINE#         156
  C:0006H         LINE#         157
  C:0006H         LINE#         159
  -------         ENDPROC       OS_IDLE_TASK
  -------         PROC          TIME_HANDLEHOOK
  -------         DO            
  D:002BH         SYMBOL        ti
  -------         ENDDO         
  C:052EH         LINE#         169
  C:052EH         LINE#         170
BL51 BANKED LINKER/LOCATER V6.22.4.0                                                  01/02/2024  16:55:54  PAGE 11


  C:052EH         LINE#         171
  C:0531H         LINE#         174
  C:0533H         LINE#         175
  C:0533H         LINE#         176
  C:054AH         LINE#         177
  C:054AH         LINE#         178
  C:054AH         LINE#         179
  C:054AH         LINE#         181
  C:057DH         LINE#         182
  C:057DH         LINE#         183
  C:0593H         LINE#         185
  C:05A5H         LINE#         186
  C:05A7H         LINE#         187
  C:05A7H         LINE#         188
  C:05E1H         LINE#         189
  C:05ECH         LINE#         190
  -------         ENDPROC       TIME_HANDLEHOOK
  -------         ENDMOD        OS_TASK

  -------         MODULE        OS_QUEUE
  C:0000H         SYMBOL        _ICE_DUMMY_
  D:0080H         PUBLIC        P0
  D:0090H         PUBLIC        P1
  D:00A0H         PUBLIC        P2
  D:00B0H         PUBLIC        P3
  D:00C0H         PUBLIC        P4
  D:00C8H         PUBLIC        P5
  D:00E8H         PUBLIC        P6
  D:00F8H         PUBLIC        P7
  D:00A8H         PUBLIC        IE
  D:00B8H         PUBLIC        IP
  D:00D8H         PUBLIC        CCON
  D:0098H         PUBLIC        SCON
  D:0088H         PUBLIC        TCON
  C:091DH         PUBLIC        _os_queueCreate
  C:0974H         PUBLIC        _os_queueSend
  D:00D0H         PUBLIC        PSW
  -------         PROC          _OS_QUEUECREATE
  D:0010H         SYMBOL        queue_handle
  D:0013H         SYMBOL        buff
  D:0016H         SYMBOL        buff_size
  D:0017H         SYMBOL        itemSize
  -------         DO            
  D:0018H         SYMBOL        ringbuffer
  -------         ENDDO         
  C:091DH         LINE#         13
  C:0923H         LINE#         14
  C:0923H         LINE#         17
  C:0937H         LINE#         18
  C:0946H         LINE#         21
  C:095EH         LINE#         23
  C:0971H         LINE#         25
  C:0973H         LINE#         26
  -------         ENDPROC       _OS_QUEUECREATE
  -------         PROC          _OS_QUEUESEND
  D:0010H         SYMBOL        queue_handle
  D:0013H         SYMBOL        _data
BL51 BANKED LINKER/LOCATER V6.22.4.0                                                  01/02/2024  16:55:54  PAGE 12


  D:0016H         SYMBOL        waitTicks
  -------         DO            
  D:001AH         SYMBOL        ret
  -------         ENDDO         
  C:0974H         LINE#         28
  C:097AH         LINE#         29
  C:097AH         LINE#         31
  C:0988H         LINE#         32
  C:09A1H         LINE#         33
  C:09A1H         LINE#         35
  C:09BAH         LINE#         36
  C:09C5H         LINE#         37
  C:09C5H         LINE#         38
  C:09C7H         LINE#         39
  -------         ENDPROC       _OS_QUEUESEND
  -------         ENDMOD        OS_QUEUE

  -------         MODULE        ?C?COPY
  C:00DEH         PUBLIC        ?C?COPY
  -------         ENDMOD        ?C?COPY

  -------         MODULE        ?C?CLDOPTR
  C:0104H         PUBLIC        ?C?CLDOPTR
  -------         ENDMOD        ?C?CLDOPTR

  -------         MODULE        ?C?CSTPTR
  C:0131H         PUBLIC        ?C?CSTPTR
  -------         ENDMOD        ?C?CSTPTR

  -------         MODULE        ?C?CSTOPTR
  C:0143H         PUBLIC        ?C?CSTOPTR
  -------         ENDMOD        ?C?CSTOPTR

  -------         MODULE        ?C?IMUL
  C:0165H         PUBLIC        ?C?IMUL
  -------         ENDMOD        ?C?IMUL

  -------         MODULE        ?C?ULCMP
  C:0177H         PUBLIC        ?C?ULCMP
  -------         ENDMOD        ?C?ULCMP

  -------         MODULE        ?C?LSTXDATA
  C:0188H         PUBLIC        ?C?LSTXDATA
  -------         ENDMOD        ?C?LSTXDATA

  -------         MODULE        ?C?LSTKXDATA
  C:0194H         PUBLIC        ?C?LSTKXDATA
  -------         ENDMOD        ?C?LSTKXDATA

  -------         MODULE        ?C?OFFXADD
  C:01C5H         PUBLIC        ?C?OFFXADD
  -------         ENDMOD        ?C?OFFXADD

  -------         MODULE        ?C?PLDPTR
  C:01D1H         PUBLIC        ?C?PLDPTR
  -------         ENDMOD        ?C?PLDPTR

BL51 BANKED LINKER/LOCATER V6.22.4.0                                                  01/02/2024  16:55:54  PAGE 13


  -------         MODULE        ?C?PSTPTR
  C:01F1H         PUBLIC        ?C?PSTPTR
  -------         ENDMOD        ?C?PSTPTR

  -------         MODULE        ?C?PLDOPTR
  C:0240H         PUBLIC        ?C?PLDOPTR
  -------         ENDMOD        ?C?PLDOPTR

  -------         MODULE        ?C?PSTOPTR
  C:0270H         PUBLIC        ?C?PSTOPTR
  -------         ENDMOD        ?C?PSTOPTR

  -------         MODULE        ?C?MEMSET
  C:02C9H         PUBLIC        ?C?MEMSET
  -------         ENDMOD        ?C?MEMSET

  -------         MODULE        ?C?PLDIDATA
  C:02F5H         PUBLIC        ?C?PLDIDATA
  -------         ENDMOD        ?C?PLDIDATA

  -------         MODULE        ?C?PSTIDATA
  C:02FEH         PUBLIC        ?C?PSTIDATA
  -------         ENDMOD        ?C?PSTIDATA

  -------         MODULE        ?C?PLDXDATA
  C:0307H         PUBLIC        ?C?PLDXDATA
  -------         ENDMOD        ?C?PLDXDATA

  -------         MODULE        ?C?PSTXDATA
  C:0310H         PUBLIC        ?C?PSTXDATA
  -------         ENDMOD        ?C?PSTXDATA

  -------         MODULE        ?C?PLDPDATA
  C:0319H         PUBLIC        ?C?PLDPDATA
  -------         ENDMOD        ?C?PLDPDATA

  -------         MODULE        ?C?PSTPDATA
  C:0322H         PUBLIC        ?C?PSTPDATA
  -------         ENDMOD        ?C?PSTPDATA

  -------         MODULE        ?C?PLDCODE
  C:032BH         PUBLIC        ?C?PLDCODE
  -------         ENDMOD        ?C?PLDCODE

*** WARNING L16: UNCALLED SEGMENT, IGNORED FOR OVERLAY PROCESS
    SEGMENT: ?PR?_RINGBUFFER_READ?RINGBUFFER

Program Size: data=78.0 xdata=198 code=2741
LINK/LOCATE RUN COMPLETE.  1 WARNING(S),  0 ERROR(S)
