BL51 BANKED LINKER/LOCATER V6.22.2.0                                                    12/24/2023  22:35:05  PAGE 1


BL51 BANKED LINKER/LOCATER V6.22.2.0, INVOKED BY:
D:\KEIL_V5_C51\C51\BIN\BL51.EXE .\Objects\STARTUP.obj, .\Objects\main.obj TO .\Objects\ºôÎüµÆpwm PRINT (.\Listings\ºôÎüµ
>> Æpwm.m51) RAMSIZE (256)


MEMORY MODEL: LARGE


INPUT MODULES INCLUDED:
  .\Objects\STARTUP.obj (?C_STARTUP)
  .\Objects\main.obj (MAIN)
  D:\KEIL_V5_C51\C51\LIB\C51L.LIB (?C_INIT)
  D:\KEIL_V5_C51\C51\LIB\C51L.LIB (?C?CSTPTR)
  D:\KEIL_V5_C51\C51\LIB\C51L.LIB (?C?CSTOPTR)


LINK MAP OF MODULE:  .\Objects\ºôÎüµÆpwm (?C_STARTUP)


            TYPE    BASE      LENGTH    RELOCATION   SEGMENT NAME
            -----------------------------------------------------

            * * * * * * *   D A T A   M E M O R Y   * * * * * * *
            REG     0000H     0008H     ABSOLUTE     "REG BANK 0"
            IDATA   0008H     002AH     UNIT         ?ID?MAIN
            IDATA   0032H     0001H     UNIT         ?STACK

            * * * * * * *  X D A T A   M E M O R Y  * * * * * * *
            XDATA   0000H     000EH     UNIT         _XDATA_GROUP_
            XDATA   000EH     0006H     UNIT         ?XD?MAIN

            * * * * * * *   C O D E   M E M O R Y   * * * * * * *
            CODE    0000H     0003H     ABSOLUTE     
                    0003H     0008H                  *** GAP ***
            CODE    000BH     0003H     ABSOLUTE     
            CODE    000EH     008CH     UNIT         ?C_C51STARTUP
            CODE    009AH     0055H     UNIT         ?PR?_TASK_LOAD?MAIN
            CODE    00EFH     0048H     UNIT         ?PR?MAIN?MAIN
            CODE    0137H     0043H     UNIT         ?PR?TIMER0_ISR?MAIN
            CODE    017AH     0041H     UNIT         ?PR?TASK_SWITCH?MAIN
            CODE    01BBH     0034H     UNIT         ?C?LIB_CODE
            CODE    01EFH     0014H     UNIT         ?PR?_DELAY_MS?MAIN
            CODE    0203H     0013H     UNIT         ?PR?OS_START?MAIN
            CODE    0216H     0013H     UNIT         ?PR?TIMER0_INIT?MAIN
            CODE    0229H     000FH     UNIT         ?PR?TASK1?MAIN
            CODE    0238H     000FH     UNIT         ?PR?TASK2?MAIN
            CODE    0247H     000BH     UNIT         ?PR?DELAY1MS?MAIN
            CODE    0252H     000BH     UNIT         ?C_INITSEG



OVERLAY MAP OF MODULE:   .\Objects\ºôÎüµÆpwm (?C_STARTUP)


SEGMENT                          XDATA_GROUP
  +--> CALLED SEGMENT          START    LENGTH
----------------------------------------------
?C_C51STARTUP                  -----    -----
BL51 BANKED LINKER/LOCATER V6.22.2.0                                                  12/24/2023  22:35:05  PAGE 2


  +--> ?PR?MAIN?MAIN
  +--> ?C_INITSEG

?PR?MAIN?MAIN                  -----    -----
  +--> ?PR?TIMER0_INIT?MAIN
  +--> ?PR?TASK1?MAIN
  +--> ?PR?_TASK_LOAD?MAIN
  +--> ?PR?TASK2?MAIN
  +--> ?PR?OS_START?MAIN

?PR?TASK1?MAIN                 -----    -----
  +--> ?PR?TASK_SWITCH?MAIN

?PR?TASK_SWITCH?MAIN           -----    -----
  +--> ?PR?_DELAY_MS?MAIN

?PR?_DELAY_MS?MAIN             -----    -----
  +--> ?PR?DELAY1MS?MAIN

?PR?_TASK_LOAD?MAIN            0000H    0008H

?PR?TASK2?MAIN                 -----    -----
  +--> ?PR?TASK_SWITCH?MAIN

*** NEW ROOT ***************************************************

?PR?TIMER0_ISR?MAIN            0008H    0006H



SYMBOL TABLE OF MODULE:  .\Objects\ºôÎüµÆpwm (?C_STARTUP)

  VALUE           TYPE          NAME
  ----------------------------------

  -------         MODULE        ?C_STARTUP
  C:000EH         SEGMENT       ?C_C51STARTUP
  I:0032H         SEGMENT       ?STACK
  C:0000H         PUBLIC        ?C_STARTUP
  D:00E0H         SYMBOL        ACC
  D:00F0H         SYMBOL        B
  D:0083H         SYMBOL        DPH
  D:0082H         SYMBOL        DPL
  N:0000H         SYMBOL        IBPSTACK
  N:0100H         SYMBOL        IBPSTACKTOP
  N:0080H         SYMBOL        IDATALEN
  C:0011H         SYMBOL        IDATALOOP
  N:0000H         SYMBOL        PBPSTACK
  N:0100H         SYMBOL        PBPSTACKTOP
  N:0000H         SYMBOL        PDATALEN
  N:0000H         SYMBOL        PDATASTART
  N:0000H         SYMBOL        PPAGE
  N:0000H         SYMBOL        PPAGEENABLE
  D:00A0H         SYMBOL        PPAGE_SFR
  D:0081H         SYMBOL        SP
  C:000EH         SYMBOL        STARTUP1
  N:0000H         SYMBOL        XBPSTACK
BL51 BANKED LINKER/LOCATER V6.22.2.0                                                  12/24/2023  22:35:05  PAGE 3


  N:0000H         SYMBOL        XBPSTACKTOP
  N:0000H         SYMBOL        XDATALEN
  N:0000H         SYMBOL        XDATASTART
  C:0000H         LINE#         126
  C:000EH         LINE#         133
  C:0010H         LINE#         134
  C:0011H         LINE#         135
  C:0012H         LINE#         136
  C:0014H         LINE#         185
  C:0017H         LINE#         196
  -------         ENDMOD        ?C_STARTUP

  -------         MODULE        MAIN
  C:0000H         SYMBOL        _ICE_DUMMY_
  D:0093H         PUBLIC        P0M1
  D:0080H         PUBLIC        P0
  D:0090H         PUBLIC        P1
  D:00A0H         PUBLIC        P2
  D:00B0H         PUBLIC        P3
  D:00C0H         PUBLIC        P4
  C:0247H         PUBLIC        Delay1ms
  D:00C8H         PUBLIC        P5
  D:00E8H         PUBLIC        P6
  B:00A8H.7       PUBLIC        EA
  D:00F8H         PUBLIC        P7
  B:0080H.5       PUBLIC        LED_R
  D:00BAH         PUBLIC        P_SW2
  D:00A8H         PUBLIC        IE
  B:0080H.6       PUBLIC        LED_Y
  D:00B8H         PUBLIC        IP
  D:0081H         PUBLIC        SP
  D:00D8H         PUBLIC        CCON
  C:00EFH         PUBLIC        main
  C:0216H         PUBLIC        Timer0_Init
  C:0181H         PUBLIC        task_switch
  D:0098H         PUBLIC        SCON
  D:0089H         PUBLIC        TMOD
  D:0088H         PUBLIC        TCON
  C:009AH         PUBLIC        _task_load
  D:008EH         PUBLIC        AUXR
  C:0137H         PUBLIC        Timer0_Isr
  B:00A8H.1       PUBLIC        ET0
  B:0088H.5       PUBLIC        TF0
  D:008CH         PUBLIC        TH0
  X:000EH         PUBLIC        cut
  D:008AH         PUBLIC        TL0
  C:01EFH         PUBLIC        _delay_ms
  C:0203H         PUBLIC        os_Start
  B:0088H.4       PUBLIC        TR0
  X:0010H         PUBLIC        max_task
  I:0008H         PUBLIC        task_stack1
  I:001CH         PUBLIC        task_stack2
  X:0012H         PUBLIC        task_id
  C:0229H         PUBLIC        task1
  C:0238H         PUBLIC        task2
  I:0030H         PUBLIC        task_sp
  D:00D0H         PUBLIC        PSW
BL51 BANKED LINKER/LOCATER V6.22.2.0                                                  12/24/2023  22:35:05  PAGE 4


  B:0080H.7       PUBLIC        LED_G
  D:0094H         PUBLIC        P0M0
  -------         PROC          DELAY1MS
  -------         DO            
  D:0007H         SYMBOL        i
  D:0006H         SYMBOL        j
  -------         ENDDO         
  C:0247H         LINE#         20
  C:0247H         LINE#         21
  C:0247H         LINE#         24
  C:0248H         LINE#         25
  C:0249H         LINE#         26
  C:024BH         LINE#         27
  C:024DH         LINE#         29
  C:024DH         LINE#         30
  C:024FH         LINE#         31
  C:0251H         LINE#         32
  -------         ENDPROC       DELAY1MS
  -------         PROC          _DELAY_MS
  D:0004H         SYMBOL        ms
  C:01EFH         LINE#         35
  C:01F3H         LINE#         36
  C:01F3H         LINE#         37
  C:01FDH         LINE#         38
  C:01FDH         LINE#         39
  C:0200H         LINE#         40
  C:0202H         LINE#         41
  -------         ENDPROC       _DELAY_MS
  -------         PROC          L?0034
  -------         ENDPROC       L?0034
  -------         PROC          TASK_SWITCH
  C:0181H         LINE#         53
  C:0181H         LINE#         54
  C:0181H         LINE#         56
  C:018BH         LINE#         57
  C:0196H         LINE#         58
  C:01A8H         LINE#         59
  C:01A8H         LINE#         60
  C:01AFH         LINE#         61
  C:01AFH         LINE#         63
  C:01BAH         LINE#         65
  -------         ENDPROC       TASK_SWITCH
  -------         PROC          _TASK_LOAD
  X:0000H         SYMBOL        task
  X:0003H         SYMBOL        tstack
  X:0006H         SYMBOL        tid
  C:009AH         LINE#         67
  C:00A5H         LINE#         68
  C:00A5H         LINE#         70
  C:00B9H         LINE#         71
  C:00D2H         LINE#         73
  C:00E0H         LINE#         75
  C:00EEH         LINE#         76
  -------         ENDPROC       _TASK_LOAD
  -------         PROC          TASK1
  -------         DO            
  D:0002H         SYMBOL        task1_i
BL51 BANKED LINKER/LOCATER V6.22.2.0                                                  12/24/2023  22:35:05  PAGE 5


  -------         ENDDO         
  C:0229H         LINE#         78
  C:0229H         LINE#         79
  C:0229H         LINE#         80
  C:022CH         LINE#         82
  C:022CH         LINE#         83
  C:022CH         LINE#         84
  C:022EH         LINE#         85
  C:0233H         LINE#         86
  C:0233H         LINE#         87
  C:0233H         LINE#         88
  C:0236H         LINE#         89
  -------         ENDPROC       TASK1
  -------         PROC          TASK2
  -------         DO            
  D:0002H         SYMBOL        task2_i
  -------         ENDDO         
  C:0238H         LINE#         92
  C:0238H         LINE#         93
  C:0238H         LINE#         95
  C:023BH         LINE#         97
  C:023BH         LINE#         98
  C:023BH         LINE#         100
  C:023DH         LINE#         101
  C:0242H         LINE#         102
  C:0242H         LINE#         103
  C:0242H         LINE#         104
  C:0242H         LINE#         106
  C:0242H         LINE#         107
  C:0245H         LINE#         108
  -------         ENDPROC       TASK2
  -------         PROC          OS_START
  C:0203H         LINE#         111
  C:0203H         LINE#         112
  C:0203H         LINE#         113
  C:020AH         LINE#         114
  C:0215H         LINE#         116
  -------         ENDPROC       OS_START
  -------         PROC          TIMER0_ISR
  -------         DO            
  X:0008H         SYMBOL        c1ut
  X:000AH         SYMBOL        c32ut
  X:000CH         SYMBOL        c2342ut
  -------         ENDDO         
  C:0137H         LINE#         120
  C:013FH         LINE#         122
  C:0146H         LINE#         123
  C:014AH         LINE#         124
  C:014EH         LINE#         126
  C:015CH         LINE#         128
  C:0168H         LINE#         129
  C:0168H         LINE#         130
  C:016FH         LINE#         131
  C:0171H         LINE#         133
  C:0171H         LINE#         134
  -------         ENDPROC       TIMER0_ISR
  -------         PROC          TIMER0_INIT
BL51 BANKED LINKER/LOCATER V6.22.2.0                                                  12/24/2023  22:35:05  PAGE 6


  C:0216H         LINE#         136
  C:0216H         LINE#         137
  C:0216H         LINE#         138
  C:0219H         LINE#         139
  C:021CH         LINE#         140
  C:021FH         LINE#         141
  C:0222H         LINE#         142
  C:0224H         LINE#         143
  C:0226H         LINE#         144
  C:0228H         LINE#         145
  -------         ENDPROC       TIMER0_INIT
  -------         PROC          MAIN
  C:00EFH         LINE#         149
  C:00EFH         LINE#         150
  C:00EFH         LINE#         151
  C:00F2H         LINE#         152
  C:00F4H         LINE#         153
  C:00F7H         LINE#         154
  C:00F9H         LINE#         155
  C:00FCH         LINE#         156
  C:0116H         LINE#         157
  C:0132H         LINE#         158
  C:0135H         LINE#         161
  C:0135H         LINE#         162
  C:0135H         LINE#         164
  -------         ENDPROC       MAIN
  -------         ENDMOD        MAIN

  -------         MODULE        ?C?CSTPTR
  C:01BBH         PUBLIC        ?C?CSTPTR
  -------         ENDMOD        ?C?CSTPTR

  -------         MODULE        ?C?CSTOPTR
  C:01CDH         PUBLIC        ?C?CSTOPTR
  -------         ENDMOD        ?C?CSTOPTR

Program Size: data=51.0 xdata=20 code=597
LINK/LOCATE RUN COMPLETE.  0 WARNING(S),  0 ERROR(S)
